target datalayout = "e-m:e-p270:32:32-p271:32:32-p272:64:64-i64:64-i128:128-f80:128-n8:16:32:64-S128"
target triple = "x86_64-pc-linux-gnu"

@.str.19 = private unnamed_addr constant [10 x i8] c"PRAGMA %s\00", align 1
@.str.20 = private unnamed_addr constant [2 x i8] c"\0A\00", align 1

; Function Attrs: nounwind uwtable
define ptr @_get_pragma_string_val(ptr noundef %0, ptr noundef %1) #0 {
  %3 = alloca ptr, align 8
  %4 = alloca ptr, align 8
  %5 = alloca ptr, align 8
  %6 = alloca ptr, align 8
  %7 = alloca ptr, align 8
  %8 = alloca i32, align 4
  %9 = alloca ptr, align 8
  %10 = alloca ptr, align 8
  store ptr %0, ptr %3, align 8, !tbaa !63
  store ptr %1, ptr %4, align 8, !tbaa !18
  call void @llvm.lifetime.start.p0(i64 8, ptr %5) #13
  %11 = load ptr, ptr %4, align 8, !tbaa !18
  %12 = call noalias ptr (ptr, ...) @g_strdup_printf(ptr noundef @.str.19, ptr noundef %11)
  store ptr %12, ptr %5, align 8, !tbaa !18
  call void @llvm.lifetime.start.p0(i64 8, ptr %6) #13
  call void @llvm.lifetime.start.p0(i64 8, ptr %7) #13
  store ptr null, ptr %7, align 8, !tbaa !18
  call void @llvm.lifetime.start.p0(i64 4, ptr %8) #13
  %13 = load ptr, ptr %3, align 8, !tbaa !63
  %14 = load ptr, ptr %5, align 8, !tbaa !18
  %15 = call i32 @sqlite3_prepare_v2(ptr noundef %13, ptr noundef %14, i32 noundef -1, ptr noundef %6, ptr noundef null)
  store i32 %15, ptr %8, align 4, !tbaa !21
  %16 = load i32, ptr %8, align 4, !tbaa !21
  %17 = icmp eq i32 %16, 0
  br i1 %17, label %18, label %43

18:                                               ; preds = %2
  %19 = load ptr, ptr %6, align 8, !tbaa !64
  %20 = call i32 @sqlite3_step(ptr noundef %19)
  %21 = icmp eq i32 %20, 100
  br i1 %21, label %22, label %43

22:                                               ; preds = %18
  %23 = load ptr, ptr %6, align 8, !tbaa !64
  %24 = call ptr @sqlite3_column_text(ptr noundef %23, i32 noundef 0)
  %25 = call noalias ptr @g_strdup(ptr noundef %24)
  store ptr %25, ptr %7, align 8, !tbaa !18
  br label %26

26:                                               ; preds = %30, %22
  %27 = load ptr, ptr %6, align 8, !tbaa !64
  %28 = call i32 @sqlite3_step(ptr noundef %27)
  %29 = icmp eq i32 %28, 100
  br i1 %29, label %30, label %42

30:                                               ; preds = %26
  call void @llvm.lifetime.start.p0(i64 8, ptr %9) #13
  %31 = load ptr, ptr %6, align 8, !tbaa !64
  %32 = call ptr @sqlite3_column_text(ptr noundef %31, i32 noundef 0)
  %33 = call noalias ptr @g_strdup(ptr noundef %32)
  store ptr %33, ptr %9, align 8, !tbaa !18
  call void @llvm.lifetime.start.p0(i64 8, ptr %10) #13
  %34 = load ptr, ptr %7, align 8, !tbaa !18
  %35 = call noalias ptr @g_strdup(ptr noundef %34)
  store ptr %35, ptr %10, align 8, !tbaa !18
  %36 = load ptr, ptr %7, align 8, !tbaa !18
  call void @g_free(ptr noundef %36)
  %37 = load ptr, ptr %10, align 8, !tbaa !18
  %38 = load ptr, ptr %9, align 8, !tbaa !18
  %39 = call noalias ptr (ptr, ...) @g_strconcat(ptr noundef %37, ptr noundef @.str.20, ptr noundef %38, ptr noundef null)
  store ptr %39, ptr %7, align 8, !tbaa !18
  %40 = load ptr, ptr %9, align 8, !tbaa !18
  call void @g_free(ptr noundef %40)
  %41 = load ptr, ptr %10, align 8, !tbaa !18
  call void @g_free(ptr noundef %41)
  call void @llvm.lifetime.end.p0(i64 8, ptr %10) #13
  call void @llvm.lifetime.end.p0(i64 8, ptr %9) #13
  br label %26

42:                                               ; preds = %26
  br label %43

43:                                               ; preds = %42, %18, %2
  %44 = load ptr, ptr %6, align 8, !tbaa !64
  %45 = call i32 @sqlite3_finalize(ptr noundef %44)
  %46 = load ptr, ptr %5, align 8, !tbaa !18
  call void @g_free(ptr noundef %46)
  %47 = load ptr, ptr %7, align 8, !tbaa !18
  call void @llvm.lifetime.end.p0(i64 4, ptr %8) #13
  call void @llvm.lifetime.end.p0(i64 8, ptr %7) #13
  call void @llvm.lifetime.end.p0(i64 8, ptr %6) #13
  call void @llvm.lifetime.end.p0(i64 8, ptr %5) #13
  ret ptr %47
}