; Function Attrs: nounwind uwtable
define ptr @_get_pragma_string_val(ptr noundef %0, ptr noundef %1) local_unnamed_addr #0 {
  %3 = alloca ptr, align 8
  %4 = tail call noalias ptr (ptr, ...) @g_strdup_printf(ptr noundef nonnull @.str.19, ptr noundef %1) #18
  call void @llvm.lifetime.start.p0(i64 8, ptr nonnull %3) #18
  %5 = call i32 @sqlite3_prepare_v2(ptr noundef %0, ptr noundef %4, i32 noundef -1, ptr noundef nonnull %3, ptr noundef null) #18
  %6 = icmp eq i32 %5, 0
  br i1 %6, label %7, label %.loopexit

7:                                                ; preds = %2
  %8 = load ptr, ptr %3, align 8, !tbaa !21
  %9 = call i32 @sqlite3_step(ptr noundef %8) #18
  %10 = icmp eq i32 %9, 100
  br i1 %10, label %11, label %.loopexit

11:                                               ; preds = %7
  %12 = load ptr, ptr %3, align 8, !tbaa !21
  %13 = call ptr @sqlite3_column_text(ptr noundef %12, i32 noundef 0) #18
  %14 = call noalias ptr @g_strdup(ptr noundef %13) #18
  %15 = load ptr, ptr %3, align 8, !tbaa !21
  %16 = call i32 @sqlite3_step(ptr noundef %15) #18
  %17 = icmp eq i32 %16, 100
  br i1 %17, label %.lr.ph, label %.loopexit

.lr.ph:                                           ; preds = %11, %.lr.ph
  %.111 = phi ptr [ %22, %.lr.ph ], [ %14, %11 ]
  %18 = load ptr, ptr %3, align 8, !tbaa !21
  %19 = call ptr @sqlite3_column_text(ptr noundef %18, i32 noundef 0) #18
  %20 = call noalias ptr @g_strdup(ptr noundef %19) #18
  %21 = call noalias ptr @g_strdup(ptr noundef %.111) #18
  call void @g_free(ptr noundef %.111) #18
  %22 = call noalias ptr (ptr, ...) @g_strconcat(ptr noundef %21, ptr noundef nonnull @.str.20, ptr noundef %20, ptr noundef null) #18
  call void @g_free(ptr noundef %20) #18
  call void @g_free(ptr noundef %21) #18
  %23 = load ptr, ptr %3, align 8, !tbaa !21
  %24 = call i32 @sqlite3_step(ptr noundef %23) #18
  %25 = icmp eq i32 %24, 100
  br i1 %25, label %.lr.ph, label %.loopexit

.loopexit:                                        ; preds = %.lr.ph, %11, %7, %2
  %.0 = phi ptr [ null, %7 ], [ null, %2 ], [ %14, %11 ], [ %22, %.lr.ph ]
  %26 = load ptr, ptr %3, align 8, !tbaa !21
  %27 = call i32 @sqlite3_finalize(ptr noundef %26) #18
  call void @g_free(ptr noundef %4) #18
  call void @llvm.lifetime.end.p0(i64 8, ptr nonnull %3) #18
  ret ptr %.0
}